target datalayout = "e-m:e-p270:32:32-p271:32:32-p272:64:64-i64:64-i128:128-f80:128-n8:16:32:64-S128"
target triple = "x86_64-unknown-linux-gnu"

%"class.sat::literal" = type { i32 }
%"class.sat::aig_cuts" = type { %class.random_gen, %"struct.sat::aig_cuts::config", %class.vector, %class.svector, %class.region, %"class.sat::cut_set", %"class.sat::cut_set", %"class.sat::cut_set", %class.vector.1, %class.svector.2, %class.svector.2, i32, i32, %class.svector.4, i32, %"class.std::function", %"class.std::function", %"class.std::function.6", %"class.std::function.6", %class.svector, [6 x ptr], [6 x i64], [6 x %"class.sat::literal"] }
%class.random_gen = type { i32 }
%"struct.sat::aig_cuts::config" = type <{ i32, i32, i32, i8, [3 x i8] }>
%class.vector = type { ptr }
%class.region = type { ptr, ptr, ptr, ptr, ptr }
%"class.sat::cut_set" = type { i32, ptr, i32, i32, ptr }
%class.vector.1 = type { ptr }
%class.svector.2 = type { %class.vector.3 }
%class.vector.3 = type { ptr }
%class.svector.4 = type { %class.vector.5 }
%class.vector.5 = type { ptr }
%"class.std::function" = type { %"class.std::_Function_base", ptr }
%"class.std::_Function_base" = type { %"union.std::_Any_data", ptr }
%"union.std::_Any_data" = type { %"union.std::_Nocopy_types" }
%"union.std::_Nocopy_types" = type { { i64, i64 } }
%"class.std::function.6" = type { %"class.std::_Function_base", ptr }
%class.svector = type { %class.vector.0 }
%class.vector.0 = type { ptr }
%"class.sat::aig_cuts::node" = type { i8, i32, i64, i32, i32 }

; Function Attrs: mustprogress nounwind uwtable
define linkonce_odr hidden void @_ZN9__gnu_cxx5__ops16__iter_less_iterEv() #4 comdat {
entry:
  ret void
}

; Function Attrs: mustprogress uwtable
define linkonce_odr hidden noundef nonnull align 8 dereferenceable(8) ptr @_ZN6vectorIN3sat7literalELb0EjE9push_backERKS1_(ptr noundef nonnull align 8 dereferenceable(8) %this, ptr noundef nonnull align 4 dereferenceable(4) %elem) #5 comdat align 2 {
entry:
  %this.addr = alloca ptr, align 8
  %elem.addr = alloca ptr, align 8
  store ptr %this, ptr %this.addr, align 8
  store ptr %elem, ptr %elem.addr, align 8
  %this1 = load ptr, ptr %this.addr, align 8
  %m_data = getelementptr inbounds %class.vector.0, ptr %this1, i32 0, i32 0
  %0 = load ptr, ptr %m_data, align 8
  %cmp = icmp eq ptr %0, null
  br i1 %cmp, label %if.then, label %lor.lhs.false

lor.lhs.false:                                    ; preds = %entry
  %m_data2 = getelementptr inbounds %class.vector.0, ptr %this1, i32 0, i32 0
  %1 = load ptr, ptr %m_data2, align 8
  %arrayidx = getelementptr inbounds i32, ptr %1, i64 -1
  %2 = load i32, ptr %arrayidx, align 4
  %m_data3 = getelementptr inbounds %class.vector.0, ptr %this1, i32 0, i32 0
  %3 = load ptr, ptr %m_data3, align 8
  %arrayidx4 = getelementptr inbounds i32, ptr %3, i64 -2
  %4 = load i32, ptr %arrayidx4, align 4
  %cmp5 = icmp eq i32 %2, %4
  br i1 %cmp5, label %if.then, label %if.end

if.then:                                          ; preds = %lor.lhs.false, %entry
  call void @_ZN6vectorIN3sat7literalELb0EjE13expand_vectorEv(ptr noundef nonnull align 8 dereferenceable(8) %this1)
  br label %if.end

if.end:                                           ; preds = %if.then, %lor.lhs.false
  %m_data6 = getelementptr inbounds %class.vector.0, ptr %this1, i32 0, i32 0
  %5 = load ptr, ptr %m_data6, align 8
  %m_data7 = getelementptr inbounds %class.vector.0, ptr %this1, i32 0, i32 0
  %6 = load ptr, ptr %m_data7, align 8
  %arrayidx8 = getelementptr inbounds i32, ptr %6, i64 -1
  %7 = load i32, ptr %arrayidx8, align 4
  %idx.ext = zext i32 %7 to i64
  %add.ptr = getelementptr inbounds %"class.sat::literal", ptr %5, i64 %idx.ext
  %8 = load ptr, ptr %elem.addr, align 8
  call void @llvm.memcpy.p0.p0.i64(ptr align 4 %add.ptr, ptr align 4 %8, i64 4, i1 false)
  %m_data9 = getelementptr inbounds %class.vector.0, ptr %this1, i32 0, i32 0
  %9 = load ptr, ptr %m_data9, align 8
  %arrayidx10 = getelementptr inbounds i32, ptr %9, i64 -1
  %10 = load i32, ptr %arrayidx10, align 4
  %inc = add i32 %10, 1
  store i32 %inc, ptr %arrayidx10, align 4
  ret ptr %this1
}

; Function Attrs: mustprogress uwtable
define linkonce_odr hidden void @_ZSt4sortIPN3sat7literalEEvT_S3_(ptr noundef %__first, ptr noundef %__last) #5 comdat {
entry:
  %__first.addr = alloca ptr, align 8
  %__last.addr = alloca ptr, align 8
  store ptr %__first, ptr %__first.addr, align 8
  store ptr %__last, ptr %__last.addr, align 8
  %0 = load ptr, ptr %__first.addr, align 8
  %1 = load ptr, ptr %__last.addr, align 8
  call void @_ZN9__gnu_cxx5__ops16__iter_less_iterEv()
  call void @_ZSt6__sortIPN3sat7literalEN9__gnu_cxx5__ops15_Iter_less_iterEEvT_S6_T0_(ptr noundef %0, ptr noundef %1)
  ret void
}

; Function Attrs: mustprogress nounwind uwtable
define linkonce_odr hidden noundef ptr @_ZNK6vectorIN3sat7literalELb0EjE4dataEv(ptr noundef nonnull align 8 dereferenceable(8) %this) #4 comdat align 2 {
entry:
  %this.addr = alloca ptr, align 8
  store ptr %this, ptr %this.addr, align 8
  %this1 = load ptr, ptr %this.addr, align 8
  %m_data = getelementptr inbounds %class.vector.0, ptr %this1, i32 0, i32 0
  %0 = load ptr, ptr %m_data, align 8
  ret ptr %0
}

; Function Attrs: mustprogress uwtable
define linkonce_odr hidden void @_ZN6vectorIN3sat7literalELb0EjE6appendEjPKS1_(ptr noundef nonnull align 8 dereferenceable(8) %this, i32 noundef %sz, ptr noundef %data) #5 comdat align 2 {
entry:
  %this.addr = alloca ptr, align 8
  %sz.addr = alloca i32, align 4
  %data.addr = alloca ptr, align 8
  %i = alloca i32, align 4
  store ptr %this, ptr %this.addr, align 8
  store i32 %sz, ptr %sz.addr, align 4
  store ptr %data, ptr %data.addr, align 8
  %this1 = load ptr, ptr %this.addr, align 8
  store i32 0, ptr %i, align 4
  br label %for.cond

for.cond:                                         ; preds = %for.inc, %entry
  %0 = load i32, ptr %i, align 4
  %1 = load i32, ptr %sz.addr, align 4
  %cmp = icmp ult i32 %0, %1
  br i1 %cmp, label %for.body, label %for.end

for.body:                                         ; preds = %for.cond
  %2 = load ptr, ptr %data.addr, align 8
  %3 = load i32, ptr %i, align 4
  %idxprom = zext i32 %3 to i64
  %arrayidx = getelementptr inbounds %"class.sat::literal", ptr %2, i64 %idxprom
  %call = call noundef nonnull align 8 dereferenceable(8) ptr @_ZN6vectorIN3sat7literalELb0EjE9push_backERKS1_(ptr noundef nonnull align 8 dereferenceable(8) %this1, ptr noundef nonnull align 4 dereferenceable(4) %arrayidx)
  br label %for.inc

for.inc:                                          ; preds = %for.body
  %4 = load i32, ptr %i, align 4
  %inc = add i32 %4, 1
  store i32 %inc, ptr %i, align 4
  br label %for.cond, !llvm.loop !20

for.end:                                          ; preds = %for.cond
  ret void
}

; Function Attrs: mustprogress nounwind uwtable
define linkonce_odr hidden void @_ZN3sat8aig_cuts4nodeC2EbNS_7bool_opEjj(ptr noundef nonnull align 8 dereferenceable(24) %this, i1 noundef zeroext %sign, i32 noundef %op, i32 noundef %nc, i32 noundef %o) unnamed_addr #4 comdat align 2 {
entry:
  %this.addr = alloca ptr, align 8
  %sign.addr = alloca i8, align 1
  %op.addr = alloca i32, align 4
  %nc.addr = alloca i32, align 4
  %o.addr = alloca i32, align 4
  store ptr %this, ptr %this.addr, align 8
  %frombool = zext i1 %sign to i8
  store i8 %frombool, ptr %sign.addr, align 1
  store i32 %op, ptr %op.addr, align 4
  store i32 %nc, ptr %nc.addr, align 4
  store i32 %o, ptr %o.addr, align 4
  %this1 = load ptr, ptr %this.addr, align 8
  %m_sign = getelementptr inbounds %"class.sat::aig_cuts::node", ptr %this1, i32 0, i32 0
  %0 = load i8, ptr %sign.addr, align 1
  %tobool = trunc i8 %0 to i1
  %frombool2 = zext i1 %tobool to i8
  store i8 %frombool2, ptr %m_sign, align 8
  %m_op = getelementptr inbounds %"class.sat::aig_cuts::node", ptr %this1, i32 0, i32 1
  %1 = load i32, ptr %op.addr, align 4
  store i32 %1, ptr %m_op, align 4
  %m_lut = getelementptr inbounds %"class.sat::aig_cuts::node", ptr %this1, i32 0, i32 2
  store i64 0, ptr %m_lut, align 8
  %m_size = getelementptr inbounds %"class.sat::aig_cuts::node", ptr %this1, i32 0, i32 3
  %2 = load i32, ptr %nc.addr, align 4
  store i32 %2, ptr %m_size, align 8
  %m_offset = getelementptr inbounds %"class.sat::aig_cuts::node", ptr %this1, i32 0, i32 4
  %3 = load i32, ptr %o.addr, align 4
  store i32 %3, ptr %m_offset, align 4
  ret void
}

; Function Attrs: mustprogress nounwind uwtable
define linkonce_odr hidden noundef zeroext i1 @_ZNK3sat7literal4signEv(ptr noundef nonnull align 4 dereferenceable(4) %this) #4 comdat align 2 {
entry:
  %this.addr = alloca ptr, align 8
  store ptr %this, ptr %this.addr, align 8
  %this1 = load ptr, ptr %this.addr, align 8
  %m_val = getelementptr inbounds %"class.sat::literal", ptr %this1, i32 0, i32 0
  %0 = load i32, ptr %m_val, align 4
  %conv = zext i32 %0 to i64
  %and = and i64 %conv, 1
  %tobool = icmp ne i64 %and, 0
  ret i1 %tobool
}

; Function Attrs: mustprogress nounwind uwtable
define linkonce_odr hidden noundef i32 @_ZNK6vectorIN3sat7literalELb0EjE4sizeEv(ptr noundef nonnull align 8 dereferenceable(8) %this) #4 comdat align 2 {
entry:
  %retval = alloca i32, align 4
  %this.addr = alloca ptr, align 8
  store ptr %this, ptr %this.addr, align 8
  %this1 = load ptr, ptr %this.addr, align 8
  %m_data = getelementptr inbounds %class.vector.0, ptr %this1, i32 0, i32 0
  %0 = load ptr, ptr %m_data, align 8
  %cmp = icmp eq ptr %0, null
  br i1 %cmp, label %if.then, label %if.end

if.then:                                          ; preds = %entry
  store i32 0, ptr %retval, align 4
  br label %return

if.end:                                           ; preds = %entry
  %m_data2 = getelementptr inbounds %class.vector.0, ptr %this1, i32 0, i32 0
  %1 = load ptr, ptr %m_data2, align 8
  %arrayidx = getelementptr inbounds i32, ptr %1, i64 -1
  %2 = load i32, ptr %arrayidx, align 4
  store i32 %2, ptr %retval, align 4
  br label %return

return:                                           ; preds = %if.end, %if.then
  %3 = load i32, ptr %retval, align 4
  ret i32 %3
}

; Function Attrs: mustprogress nounwind uwtable
define linkonce_odr hidden noundef i32 @_ZNK3sat7literal3varEv(ptr noundef nonnull align 4 dereferenceable(4) %this) #4 comdat align 2 {
entry:
  %this.addr = alloca ptr, align 8
  store ptr %this, ptr %this.addr, align 8
  %this1 = load ptr, ptr %this.addr, align 8
  %m_val = getelementptr inbounds %"class.sat::literal", ptr %this1, i32 0, i32 0
  %0 = load i32, ptr %m_val, align 4
  %shr = lshr i32 %0, 1
  ret i32 %shr
}

; Function Attrs: mustprogress uwtable
define hidden void @_ZN3sat8aig_cuts8add_nodeENS_7literalENS_7bool_opEjPKS1_(ptr noundef nonnull align 8 dereferenceable(480) %this, i32 %head.coerce, i32 noundef %op, i32 noundef %sz, ptr noundef %args) #5 align 2 {
entry:
  %head = alloca %"class.sat::literal", align 4
  %this.addr = alloca ptr, align 8
  %op.addr = alloca i32, align 4
  %sz.addr = alloca i32, align 4
  %args.addr = alloca ptr, align 8
  %v = alloca i32, align 4
  %offset = alloca i32, align 4
  %n = alloca %"class.sat::aig_cuts::node", align 8
  %i = alloca i32, align 4
  %coerce.dive = getelementptr inbounds %"class.sat::literal", ptr %head, i32 0, i32 0
  store i32 %head.coerce, ptr %coerce.dive, align 4
  store ptr %this, ptr %this.addr, align 8
  store i32 %op, ptr %op.addr, align 4
  store i32 %sz, ptr %sz.addr, align 4
  store ptr %args, ptr %args.addr, align 8
  %this1 = load ptr, ptr %this.addr, align 8
  %call = call noundef i32 @_ZNK3sat7literal3varEv(ptr noundef nonnull align 4 dereferenceable(4) %head)
  store i32 %call, ptr %v, align 4
  %0 = load i32, ptr %v, align 4
  call void @_ZN3sat8aig_cuts7reserveEj(ptr noundef nonnull align 8 dereferenceable(480) %this1, i32 noundef %0)
  %m_literals = getelementptr inbounds %"class.sat::aig_cuts", ptr %this1, i32 0, i32 3
  %call2 = call noundef i32 @_ZNK6vectorIN3sat7literalELb0EjE4sizeEv(ptr noundef nonnull align 8 dereferenceable(8) %m_literals)
  store i32 %call2, ptr %offset, align 4
  %call3 = call noundef zeroext i1 @_ZNK3sat7literal4signEv(ptr noundef nonnull align 4 dereferenceable(4) %head)
  %1 = load i32, ptr %op.addr, align 4
  %2 = load i32, ptr %sz.addr, align 4
  %3 = load i32, ptr %offset, align 4
  call void @_ZN3sat8aig_cuts4nodeC2EbNS_7bool_opEjj(ptr noundef nonnull align 8 dereferenceable(24) %n, i1 noundef zeroext %call3, i32 noundef %1, i32 noundef %2, i32 noundef %3)
  %m_literals4 = getelementptr inbounds %"class.sat::aig_cuts", ptr %this1, i32 0, i32 3
  %4 = load i32, ptr %sz.addr, align 4
  %5 = load ptr, ptr %args.addr, align 8
  call void @_ZN6vectorIN3sat7literalELb0EjE6appendEjPKS1_(ptr noundef nonnull align 8 dereferenceable(8) %m_literals4, i32 noundef %4, ptr noundef %5)
  store i32 0, ptr %i, align 4
  br label %for.cond

for.cond:                                         ; preds = %for.inc, %entry
  %6 = load i32, ptr %i, align 4
  %7 = load i32, ptr %sz.addr, align 4
  %cmp = icmp ult i32 %6, %7
  br i1 %cmp, label %for.body, label %for.end

for.body:                                         ; preds = %for.cond
  %8 = load ptr, ptr %args.addr, align 8
  %9 = load i32, ptr %i, align 4
  %idxprom = zext i32 %9 to i64
  %arrayidx = getelementptr inbounds %"class.sat::literal", ptr %8, i64 %idxprom
  %call5 = call noundef i32 @_ZNK3sat7literal3varEv(ptr noundef nonnull align 4 dereferenceable(4) %arrayidx)
  call void @_ZN3sat8aig_cuts7reserveEj(ptr noundef nonnull align 8 dereferenceable(480) %this1, i32 noundef %call5)
  br label %for.inc

for.inc:                                          ; preds = %for.body
  %10 = load i32, ptr %i, align 4
  %inc = add i32 %10, 1
  store i32 %inc, ptr %i, align 4
  br label %for.cond, !llvm.loop !19

for.end:                                          ; preds = %for.cond
  %11 = load i32, ptr %op.addr, align 4
  %cmp6 = icmp eq i32 %11, 1
  br i1 %cmp6, label %if.then, label %lor.lhs.false

lor.lhs.false:                                    ; preds = %for.end
  %12 = load i32, ptr %op.addr, align 4
  %cmp7 = icmp eq i32 %12, 3
  br i1 %cmp7, label %if.then, label %if.end

if.then:                                          ; preds = %lor.lhs.false, %for.end
  %m_literals8 = getelementptr inbounds %"class.sat::aig_cuts", ptr %this1, i32 0, i32 3
  %call9 = call noundef ptr @_ZNK6vectorIN3sat7literalELb0EjE4dataEv(ptr noundef nonnull align 8 dereferenceable(8) %m_literals8)
  %13 = load i32, ptr %offset, align 4
  %idx.ext = zext i32 %13 to i64
  %add.ptr = getelementptr inbounds %"class.sat::literal", ptr %call9, i64 %idx.ext
  %m_literals10 = getelementptr inbounds %"class.sat::aig_cuts", ptr %this1, i32 0, i32 3
  %call11 = call noundef ptr @_ZNK6vectorIN3sat7literalELb0EjE4dataEv(ptr noundef nonnull align 8 dereferenceable(8) %m_literals10)
  %14 = load i32, ptr %offset, align 4
  %idx.ext12 = zext i32 %14 to i64
  %add.ptr13 = getelementptr inbounds %"class.sat::literal", ptr %call11, i64 %idx.ext12
  %15 = load i32, ptr %sz.addr, align 4
  %idx.ext14 = zext i32 %15 to i64
  %add.ptr15 = getelementptr inbounds %"class.sat::literal", ptr %add.ptr13, i64 %idx.ext14
  call void @_ZSt4sortIPN3sat7literalEEvT_S3_(ptr noundef %add.ptr, ptr noundef %add.ptr15)
  br label %if.end

if.end:                                           ; preds = %if.then, %lor.lhs.false
  %16 = load i32, ptr %v, align 4
  call void @_ZN3sat8aig_cuts8add_nodeEjRKNS0_4nodeE(ptr noundef nonnull align 8 dereferenceable(480) %this1, i32 noundef %16, ptr noundef nonnull align 8 dereferenceable(24) %n)
  ret void
}