; Function Attrs: mustprogress uwtable
define hidden void @_ZN3sat8aig_cuts8add_nodeENS_7literalENS_7bool_opEjPKS1_(ptr noundef nonnull align 8 dereferenceable(480) %this, i32 %head.coerce, i32 noundef %op, i32 noundef %sz, ptr nocapture noundef readonly %args) local_unnamed_addr #3 align 2 {
entry:
  %n = alloca %"class.sat::aig_cuts::node", align 8
  %shr.i = lshr i32 %head.coerce, 1
  tail call void @_ZN3sat8aig_cuts7reserveEj(ptr noundef nonnull align 8 dereferenceable(480) %this, i32 noundef %shr.i)
  %m_literals = getelementptr inbounds i8, ptr %this, i64 32
  %0 = load ptr, ptr %m_literals, align 8
  %cmp.i = icmp eq ptr %0, null
  br i1 %cmp.i, label %_ZNK6vectorIN3sat7literalELb0EjE4sizeEv.exit, label %if.end.i

if.end.i:                                         ; preds = %entry
  %arrayidx.i = getelementptr inbounds i8, ptr %0, i64 -4
  %1 = load i32, ptr %arrayidx.i, align 4
  br label %_ZNK6vectorIN3sat7literalELb0EjE4sizeEv.exit

_ZNK6vectorIN3sat7literalELb0EjE4sizeEv.exit:     ; preds = %entry, %if.end.i
  %retval.0.i = phi i32 [ %1, %if.end.i ], [ 0, %entry ]
  %2 = trunc i32 %head.coerce to i8
  %frombool.i = and i8 %2, 1
  store i8 %frombool.i, ptr %n, align 8
  %m_op.i = getelementptr inbounds i8, ptr %n, i64 4
  store i32 %op, ptr %m_op.i, align 4
  %m_lut.i = getelementptr inbounds i8, ptr %n, i64 8
  store i64 0, ptr %m_lut.i, align 8
  %m_size.i = getelementptr inbounds i8, ptr %n, i64 16
  store i32 %sz, ptr %m_size.i, align 8
  %m_offset.i = getelementptr inbounds i8, ptr %n, i64 20
  store i32 %retval.0.i, ptr %m_offset.i, align 4
  %cmp3.not.i = icmp eq i32 %sz, 0
  br i1 %cmp3.not.i, label %for.end, label %for.body.preheader.i

for.body.preheader.i:                             ; preds = %_ZNK6vectorIN3sat7literalELb0EjE4sizeEv.exit
  %wide.trip.count.i = zext i32 %sz to i64
  br label %for.body.i

for.body.i:                                       ; preds = %_ZN6vectorIN3sat7literalELb0EjE9push_backERKS1_.exit.i, %for.body.preheader.i
  %indvars.iv.i = phi i64 [ 0, %for.body.preheader.i ], [ %indvars.iv.next.i, %_ZN6vectorIN3sat7literalELb0EjE9push_backERKS1_.exit.i ]
  %arrayidx.i12 = getelementptr inbounds %"class.sat::literal", ptr %args, i64 %indvars.iv.i
  %3 = load ptr, ptr %m_literals, align 8
  %cmp.i.i = icmp eq ptr %3, null
  br i1 %cmp.i.i, label %if.then.i.i, label %lor.lhs.false.i.i

lor.lhs.false.i.i:                                ; preds = %for.body.i
  %arrayidx.i.i = getelementptr inbounds i8, ptr %3, i64 -4
  %4 = load i32, ptr %arrayidx.i.i, align 4
  %arrayidx4.i.i = getelementptr inbounds i8, ptr %3, i64 -8
  %5 = load i32, ptr %arrayidx4.i.i, align 4
  %cmp5.i.i = icmp eq i32 %4, %5
  br i1 %cmp5.i.i, label %if.then.i.i, label %_ZN6vectorIN3sat7literalELb0EjE9push_backERKS1_.exit.i

if.then.i.i:                                      ; preds = %lor.lhs.false.i.i, %for.body.i
  tail call void @_ZN6vectorIN3sat7literalELb0EjE13expand_vectorEv(ptr noundef nonnull align 8 dereferenceable(8) %m_literals)
  %.pre.i.i = load ptr, ptr %m_literals, align 8
  %arrayidx8.phi.trans.insert.i.i = getelementptr inbounds i8, ptr %.pre.i.i, i64 -4
  %.pre1.i.i = load i32, ptr %arrayidx8.phi.trans.insert.i.i, align 4
  br label %_ZN6vectorIN3sat7literalELb0EjE9push_backERKS1_.exit.i

_ZN6vectorIN3sat7literalELb0EjE9push_backERKS1_.exit.i: ; preds = %if.then.i.i, %lor.lhs.false.i.i
  %6 = phi i32 [ %.pre1.i.i, %if.then.i.i ], [ %4, %lor.lhs.false.i.i ]
  %7 = phi ptr [ %.pre.i.i, %if.then.i.i ], [ %3, %lor.lhs.false.i.i ]
  %idx.ext.i.i = zext i32 %6 to i64
  %add.ptr.i.i = getelementptr inbounds %"class.sat::literal", ptr %7, i64 %idx.ext.i.i
  %8 = load i32, ptr %arrayidx.i12, align 4
  store i32 %8, ptr %add.ptr.i.i, align 4
  %9 = load ptr, ptr %m_literals, align 8
  %arrayidx10.i.i = getelementptr inbounds i8, ptr %9, i64 -4
  %10 = load i32, ptr %arrayidx10.i.i, align 4
  %inc.i.i = add i32 %10, 1
  store i32 %inc.i.i, ptr %arrayidx10.i.i, align 4
  %indvars.iv.next.i = add nuw nsw i64 %indvars.iv.i, 1
  %exitcond.not.i = icmp eq i64 %indvars.iv.next.i, %wide.trip.count.i
  br i1 %exitcond.not.i, label %_ZN6vectorIN3sat7literalELb0EjE6appendEjPKS1_.exit, label %for.body.i, !llvm.loop !33

_ZN6vectorIN3sat7literalELb0EjE6appendEjPKS1_.exit: ; preds = %_ZN6vectorIN3sat7literalELb0EjE9push_backERKS1_.exit.i
  br i1 %cmp3.not.i, label %for.end, label %for.body.preheader

for.body.preheader:                               ; preds = %_ZN6vectorIN3sat7literalELb0EjE6appendEjPKS1_.exit
  %wide.trip.count = zext i32 %sz to i64
  br label %for.body

for.body:                                         ; preds = %for.body.preheader, %for.body
  %indvars.iv = phi i64 [ 0, %for.body.preheader ], [ %indvars.iv.next, %for.body ]
  %arrayidx = getelementptr inbounds %"class.sat::literal", ptr %args, i64 %indvars.iv
  %11 = load i32, ptr %arrayidx, align 4
  %shr.i13 = lshr i32 %11, 1
  tail call void @_ZN3sat8aig_cuts7reserveEj(ptr noundef nonnull align 8 dereferenceable(480) %this, i32 noundef %shr.i13)
  %indvars.iv.next = add nuw nsw i64 %indvars.iv, 1
  %exitcond.not = icmp eq i64 %indvars.iv.next, %wide.trip.count
  br i1 %exitcond.not, label %for.end, label %for.body, !llvm.loop !34

for.end:                                          ; preds = %for.body, %_ZNK6vectorIN3sat7literalELb0EjE4sizeEv.exit, %_ZN6vectorIN3sat7literalELb0EjE6appendEjPKS1_.exit
  %12 = and i32 %op, -3
  %or.cond = icmp eq i32 %12, 1
  br i1 %or.cond, label %if.then, label %if.end

if.then:                                          ; preds = %for.end
  %13 = load ptr, ptr %m_literals, align 8
  %idx.ext = zext i32 %retval.0.i to i64
  %add.ptr = getelementptr inbounds %"class.sat::literal", ptr %13, i64 %idx.ext
  %idx.ext14 = zext i32 %sz to i64
  %add.ptr15 = getelementptr inbounds %"class.sat::literal", ptr %add.ptr, i64 %idx.ext14
  tail call void @_ZSt6__sortIPN3sat7literalEN9__gnu_cxx5__ops15_Iter_less_iterEEvT_S6_T0_(ptr noundef %add.ptr, ptr noundef %add.ptr15)
  br label %if.end

if.end:                                           ; preds = %for.end, %if.then
  call void @_ZN3sat8aig_cuts8add_nodeEjRKNS0_4nodeE(ptr noundef nonnull align 8 dereferenceable(480) %this, i32 noundef %shr.i, ptr noundef nonnull align 8 dereferenceable(24) %n)
  ret void
}